target datalayout = "e-m:e-p270:32:32-p271:32:32-p272:64:64-i64:64-i128:128-f80:128-n8:16:32:64-S128"
target triple = "x86_64-pc-linux-gnu"

%class.OopClosure = type { ptr }
%class.ReferenceLocateClosure = type <{ %class.OopClosure, ptr, %struct.RootCallbackInfo, i8, [7 x i8] }>
%struct.RootCallbackInfo = type { ptr, ptr, ptr, i32, i32 }
%class.CLDToOopClosure = type <{ %class.CLDClosure, ptr, i32, [4 x i8] }>
%class.CLDClosure = type { ptr }
%class.ReferenceToRootClosure = type <{ ptr, %struct.RootCallbackInfo, i8, [7 x i8] }>

@_ZTV22ReferenceLocateClosure = hidden unnamed_addr constant { [4 x ptr] } { [4 x ptr] [ptr null, ptr null, ptr @_ZN22ReferenceLocateClosure6do_oopEPP7oopDesc, ptr @_ZN22ReferenceLocateClosure6do_oopEP9narrowOop] }, align 8
@_ZTV10OopClosure = linkonce_odr hidden unnamed_addr constant { [4 x ptr] } { [4 x ptr] [ptr null, ptr null, ptr @__cxa_pure_virtual, ptr @__cxa_pure_virtual] }, comdat, align 8
@_ZTV15CLDToOopClosure = external unnamed_addr constant { [3 x ptr] }, align 8
@_ZTV10CLDClosure = linkonce_odr hidden unnamed_addr constant { [3 x ptr] } { [3 x ptr] [ptr null, ptr null, ptr @__cxa_pure_virtual] }, comdat, align 8

; Function Attrs: mustprogress nounwind uwtable
define linkonce_odr hidden void @_ZN10CLDClosureC2Ev(ptr noundef nonnull align 8 dereferenceable(8) %0) unnamed_addr #1 comdat align 2 {
  %2 = alloca ptr, align 8
  store ptr %0, ptr %2, align 8
  %3 = load ptr, ptr %2, align 8
  store ptr getelementptr inbounds inrange(-16, 8) ({ [3 x ptr] }, ptr @_ZTV10CLDClosure, i32 0, i32 0, i32 2), ptr %3, align 8
  ret void
}

; Function Attrs: mustprogress nounwind uwtable
define linkonce_odr hidden void @_ZN10OopClosureC2Ev(ptr noundef nonnull align 8 dereferenceable(8) %0) unnamed_addr #1 comdat align 2 {
  %2 = alloca ptr, align 8
  store ptr %0, ptr %2, align 8
  %3 = load ptr, ptr %2, align 8
  store ptr getelementptr inbounds inrange(-16, 16) ({ [4 x ptr] }, ptr @_ZTV10OopClosure, i32 0, i32 0, i32 2), ptr %3, align 8
  ret void
}

; Function Attrs: mustprogress nounwind uwtable
define linkonce_odr hidden noundef zeroext i1 @_ZNK22ReferenceLocateClosure8completeEv(ptr noundef nonnull align 8 dereferenceable(49) %0) #1 comdat align 2 {
  %2 = alloca ptr, align 8
  store ptr %0, ptr %2, align 8
  %3 = load ptr, ptr %2, align 8
  %4 = getelementptr inbounds %class.ReferenceLocateClosure, ptr %3, i32 0, i32 3
  %5 = load i8, ptr %4, align 8
  %6 = trunc i8 %5 to i1
  ret i1 %6
}

; Function Attrs: mustprogress nounwind uwtable
define linkonce_odr hidden void @_ZN15CLDToOopClosureC2EP10OopClosurei(ptr noundef nonnull align 8 dereferenceable(20) %0, ptr noundef %1, i32 noundef %2) unnamed_addr #1 comdat align 2 {
  %4 = alloca ptr, align 8
  %5 = alloca ptr, align 8
  %6 = alloca i32, align 4
  store ptr %0, ptr %4, align 8
  store ptr %1, ptr %5, align 8
  store i32 %2, ptr %6, align 4
  %7 = load ptr, ptr %4, align 8
  call void @_ZN10CLDClosureC2Ev(ptr noundef nonnull align 8 dereferenceable(8) %7) #7
  store ptr getelementptr inbounds inrange(-16, 8) ({ [3 x ptr] }, ptr @_ZTV15CLDToOopClosure, i32 0, i32 0, i32 2), ptr %7, align 8
  %8 = getelementptr inbounds %class.CLDToOopClosure, ptr %7, i32 0, i32 1
  %9 = load ptr, ptr %5, align 8
  store ptr %9, ptr %8, align 8
  %10 = getelementptr inbounds %class.CLDToOopClosure, ptr %7, i32 0, i32 2
  %11 = load i32, ptr %6, align 4
  store i32 %11, ptr %10, align 8
  ret void
}

; Function Attrs: mustprogress nounwind uwtable
define linkonce_odr hidden void @_ZN22ReferenceLocateClosureC2ER12RootCallbackN13OldObjectRoot6SystemENS2_4TypeEPKv(ptr noundef nonnull align 8 dereferenceable(49) %0, ptr noundef nonnull align 8 dereferenceable(8) %1, i32 noundef %2, i32 noundef %3, ptr noundef %4) unnamed_addr #1 comdat align 2 {
  %6 = alloca ptr, align 8
  %7 = alloca ptr, align 8
  %8 = alloca i32, align 4
  %9 = alloca i32, align 4
  %10 = alloca ptr, align 8
  store ptr %0, ptr %6, align 8
  store ptr %1, ptr %7, align 8
  store i32 %2, ptr %8, align 4
  store i32 %3, ptr %9, align 4
  store ptr %4, ptr %10, align 8
  %11 = load ptr, ptr %6, align 8
  call void @_ZN10OopClosureC2Ev(ptr noundef nonnull align 8 dereferenceable(8) %11) #7
  store ptr getelementptr inbounds inrange(-16, 16) ({ [4 x ptr] }, ptr @_ZTV22ReferenceLocateClosure, i32 0, i32 0, i32 2), ptr %11, align 8
  %12 = getelementptr inbounds %class.ReferenceLocateClosure, ptr %11, i32 0, i32 1
  %13 = load ptr, ptr %7, align 8
  store ptr %13, ptr %12, align 8
  %14 = getelementptr inbounds %class.ReferenceLocateClosure, ptr %11, i32 0, i32 2
  call void @llvm.memset.p0.i64(ptr align 8 %14, i8 0, i64 32, i1 false)
  %15 = getelementptr inbounds %class.ReferenceLocateClosure, ptr %11, i32 0, i32 3
  store i8 0, ptr %15, align 8
  %16 = getelementptr inbounds %class.ReferenceLocateClosure, ptr %11, i32 0, i32 2
  %17 = getelementptr inbounds %struct.RootCallbackInfo, ptr %16, i32 0, i32 0
  store ptr null, ptr %17, align 8
  %18 = getelementptr inbounds %class.ReferenceLocateClosure, ptr %11, i32 0, i32 2
  %19 = getelementptr inbounds %struct.RootCallbackInfo, ptr %18, i32 0, i32 1
  store ptr null, ptr %19, align 8
  %20 = load i32, ptr %8, align 4
  %21 = getelementptr inbounds %class.ReferenceLocateClosure, ptr %11, i32 0, i32 2
  %22 = getelementptr inbounds %struct.RootCallbackInfo, ptr %21, i32 0, i32 3
  store i32 %20, ptr %22, align 8
  %23 = load i32, ptr %9, align 4
  %24 = getelementptr inbounds %class.ReferenceLocateClosure, ptr %11, i32 0, i32 2
  %25 = getelementptr inbounds %struct.RootCallbackInfo, ptr %24, i32 0, i32 4
  store i32 %23, ptr %25, align 4
  %26 = load ptr, ptr %10, align 8
  %27 = getelementptr inbounds %class.ReferenceLocateClosure, ptr %11, i32 0, i32 2
  %28 = getelementptr inbounds %struct.RootCallbackInfo, ptr %27, i32 0, i32 2
  store ptr %26, ptr %28, align 8
  ret void
}

; Function Attrs: mustprogress nounwind uwtable
define hidden noundef zeroext i1 @_ZN22ReferenceToRootClosure13do_cldg_rootsEv(ptr noundef nonnull align 8 dereferenceable(41) %0) #1 align 2 {
  %2 = alloca ptr, align 8
  %3 = alloca %class.ReferenceLocateClosure, align 8
  %4 = alloca %class.CLDToOopClosure, align 8
  store ptr %0, ptr %2, align 8
  %5 = load ptr, ptr %2, align 8
  %6 = getelementptr inbounds %class.ReferenceToRootClosure, ptr %5, i32 0, i32 0
  %7 = load ptr, ptr %6, align 8
  call void @_ZN22ReferenceLocateClosureC2ER12RootCallbackN13OldObjectRoot6SystemENS2_4TypeEPKv(ptr noundef nonnull align 8 dereferenceable(49) %3, ptr noundef nonnull align 8 dereferenceable(8) %7, i32 noundef 8, i32 noundef 0, ptr noundef null)
  call void @_ZN15CLDToOopClosureC2EP10OopClosurei(ptr noundef nonnull align 8 dereferenceable(20) %4, ptr noundef %3, i32 noundef 0)
  call void @_ZN20ClassLoaderDataGraph20always_strong_cld_doEP10CLDClosure(ptr noundef %4)
  %8 = call noundef zeroext i1 @_ZNK22ReferenceLocateClosure8completeEv(ptr noundef nonnull align 8 dereferenceable(49) %3)
  ret i1 %8
}