; Function Attrs: mustprogress nounwind uwtable
define hidden noundef zeroext i1 @_ZN22ReferenceToRootClosure13do_cldg_rootsEv(ptr nocapture noundef nonnull readonly align 8 dereferenceable(41) %0) local_unnamed_addr #0 align 2 {
  %2 = alloca %class.ReferenceLocateClosure, align 8
  %3 = alloca %class.CLDToOopClosure, align 8
  %4 = load ptr, ptr %0, align 8
  store ptr getelementptr inbounds inrange(-16, 16) (i8, ptr @_ZTV22ReferenceLocateClosure, i64 16), ptr %2, align 8
  %5 = getelementptr inbounds i8, ptr %2, i64 8
  store ptr %4, ptr %5, align 8
  %6 = getelementptr inbounds i8, ptr %2, i64 16
  %7 = getelementptr inbounds i8, ptr %2, i64 40
  call void @llvm.memset.p0.i64(ptr noundef nonnull align 8 dereferenceable(33) %6, i8 0, i64 33, i1 false)
  store i32 8, ptr %7, align 8
  %8 = getelementptr inbounds i8, ptr %2, i64 32
  store ptr null, ptr %8, align 8
  store ptr getelementptr inbounds inrange(-16, 8) (i8, ptr @_ZTV15CLDToOopClosure, i64 16), ptr %3, align 8
  %9 = getelementptr inbounds i8, ptr %3, i64 8
  store ptr %2, ptr %9, align 8
  %10 = getelementptr inbounds i8, ptr %3, i64 16
  store i32 0, ptr %10, align 8
  call void @_ZN20ClassLoaderDataGraph20always_strong_cld_doEP10CLDClosure(ptr noundef nonnull %3) #8
  %11 = getelementptr inbounds i8, ptr %2, i64 48
  %12 = load i8, ptr %11, align 8
  %13 = trunc i8 %12 to i1
  ret i1 %13
}